target datalayout = "e-m:e-p270:32:32-p271:32:32-p272:64:64-i64:64-i128:128-f80:128-n8:16:32:64-S128"
target triple = "x86_64-pc-linux-gnu"

%struct._value_string_ext = type { ptr, i32, i32, ptr, ptr }
%struct.expert_field = type { i32, i32 }
%struct._packet_info = type { ptr, ptr, i32, i32, %struct.nstime_t, %struct.nstime_t, %struct.nstime_t, i8, ptr, ptr, ptr, ptr, %struct._address, %struct._address, %struct._address, %struct._address, %struct._address, %struct._address, i32, ptr, i8, [3 x i8], %struct.anon, i32, i32, i32, i32, ptr, i8, ptr, ptr, i16, i16, i32, i32, i16, i32, i32, ptr, ptr, ptr, i8, i8, i16, i16, i16, i32, i16, i16, ptr, ptr, ptr, ptr, ptr, i32, i32 }
%struct.nstime_t = type { i64, i32 }
%struct._address = type { i32, i32, ptr, ptr }
%struct.anon = type { i8, [3 x i8] }

@proto_uma = internal global i32 0, align 4
@hf_uma_urlc_msg_type = internal global i32 0, align 4
@uma_urlc_msg_type_vals_ext = internal global %struct._value_string_ext { ptr @_try_val_to_str_ext_init, i32 0, i32 18, ptr @uma_urlc_msg_type_vals, ptr @.str.279 }, align 8
@hf_uma_urlc_TLLI = internal global i32 0, align 4
@hf_uma_urlc_seq_nr = internal global i32 0, align 4
@ett_uma = internal global i32 0, align 4
@ei_uma_wrong_message_type = internal global %struct.expert_field zeroinitializer, align 4
@.str.221 = private unnamed_addr constant [4 x i8] c"UMA\00", align 1
@.str.610 = private unnamed_addr constant [18 x i8] c"Unknown URLC (%u)\00", align 1
@.str.613 = private unnamed_addr constant [4 x i8] c"%s \00", align 1

; Function Attrs: null_pointer_is_valid sspstrong uwtable
define internal i32 @dissect_uma_urlc_udp(ptr noundef %0, ptr noundef %1, ptr noundef %2, ptr noundef %3) #0 {
  %5 = alloca i32, align 4
  %6 = alloca ptr, align 8
  %7 = alloca ptr, align 8
  %8 = alloca ptr, align 8
  %9 = alloca ptr, align 8
  %10 = alloca i32, align 4
  %11 = alloca i8, align 1
  %12 = alloca i16, align 2
  %13 = alloca ptr, align 8
  %14 = alloca ptr, align 8
  %15 = alloca ptr, align 8
  %16 = alloca i32, align 4
  store ptr %0, ptr %6, align 8
  store ptr %1, ptr %7, align 8
  store ptr %2, ptr %8, align 8
  store ptr %3, ptr %9, align 8
  call void @llvm.lifetime.start.p0(i64 4, ptr %10) #4
  store i32 0, ptr %10, align 4
  call void @llvm.lifetime.start.p0(i64 1, ptr %11) #4
  call void @llvm.lifetime.start.p0(i64 2, ptr %12) #4
  call void @llvm.lifetime.start.p0(i64 8, ptr %13) #4
  call void @llvm.lifetime.start.p0(i64 8, ptr %14) #4
  call void @llvm.lifetime.start.p0(i64 8, ptr %15) #4
  %17 = load ptr, ptr %7, align 8
  %18 = getelementptr inbounds nuw %struct._packet_info, ptr %17, i32 0, i32 1
  %19 = load ptr, ptr %18, align 8
  call void @col_set_str(ptr noundef %19, i32 noundef 35, ptr noundef @.str.221)
  %20 = load ptr, ptr %7, align 8
  %21 = getelementptr inbounds nuw %struct._packet_info, ptr %20, i32 0, i32 1
  %22 = load ptr, ptr %21, align 8
  call void @col_clear(ptr noundef %22, i32 noundef 25)
  %23 = load ptr, ptr %8, align 8
  %24 = load i32, ptr @proto_uma, align 4
  %25 = load ptr, ptr %6, align 8
  %26 = call ptr @proto_tree_add_item(ptr noundef %23, i32 noundef %24, ptr noundef %25, i32 noundef 0, i32 noundef -1, i32 noundef 0)
  store ptr %26, ptr %14, align 8
  %27 = load ptr, ptr %14, align 8
  %28 = load i32, ptr @ett_uma, align 4
  %29 = call ptr @proto_item_add_subtree(ptr noundef %27, i32 noundef %28)
  store ptr %29, ptr %15, align 8
  %30 = load ptr, ptr %6, align 8
  %31 = load i32, ptr %10, align 4
  %32 = call zeroext i8 @tvb_get_uint8(ptr noundef %30, i32 noundef %31)
  store i8 %32, ptr %11, align 1
  %33 = load ptr, ptr %15, align 8
  %34 = load i32, ptr @hf_uma_urlc_msg_type, align 4
  %35 = load ptr, ptr %6, align 8
  %36 = load i32, ptr %10, align 4
  %37 = call ptr @proto_tree_add_item(ptr noundef %33, i32 noundef %34, ptr noundef %35, i32 noundef %36, i32 noundef 1, i32 noundef 0)
  store ptr %37, ptr %13, align 8
  %38 = load ptr, ptr %7, align 8
  %39 = getelementptr inbounds nuw %struct._packet_info, ptr %38, i32 0, i32 1
  %40 = load ptr, ptr %39, align 8
  %41 = load i8, ptr %11, align 1
  %42 = zext i8 %41 to i32
  %43 = call ptr @val_to_str_ext(i32 noundef %42, ptr noundef @uma_urlc_msg_type_vals_ext, ptr noundef @.str.610)
  call void (ptr, i32, ptr, ...) @col_add_fstr(ptr noundef %40, i32 noundef 25, ptr noundef @.str.613, ptr noundef %43)
  %44 = load ptr, ptr %7, align 8
  %45 = getelementptr inbounds nuw %struct._packet_info, ptr %44, i32 0, i32 1
  %46 = load ptr, ptr %45, align 8
  call void @col_set_fence(ptr noundef %46, i32 noundef 25)
  %47 = load ptr, ptr %6, align 8
  %48 = load i32, ptr %10, align 4
  %49 = call i32 @tvb_reported_length_remaining(ptr noundef %47, i32 noundef %48)
  %50 = sub i32 %49, 1
  %51 = trunc i32 %50 to i16
  store i16 %51, ptr %12, align 2
  %52 = load i8, ptr %11, align 1
  %53 = zext i8 %52 to i32
  switch i32 %53, label %86 [
    i32 2, label %54
    i32 6, label %54
    i32 7, label %54
  ]

54:                                               ; preds = %4, %4, %4
  %55 = load i32, ptr %10, align 4
  %56 = add i32 %55, 1
  store i32 %56, ptr %10, align 4
  %57 = load ptr, ptr %15, align 8
  %58 = load i32, ptr @hf_uma_urlc_TLLI, align 4
  %59 = load ptr, ptr %6, align 8
  %60 = load i32, ptr %10, align 4
  %61 = call ptr @proto_tree_add_item(ptr noundef %57, i32 noundef %58, ptr noundef %59, i32 noundef %60, i32 noundef 4, i32 noundef 0)
  %62 = load i32, ptr %10, align 4
  %63 = add i32 %62, 4
  store i32 %63, ptr %10, align 4
  %64 = load ptr, ptr %15, align 8
  %65 = load i32, ptr @hf_uma_urlc_seq_nr, align 4
  %66 = load ptr, ptr %6, align 8
  %67 = load i32, ptr %10, align 4
  %68 = call ptr @proto_tree_add_item(ptr noundef %64, i32 noundef %65, ptr noundef %66, i32 noundef %67, i32 noundef 2, i32 noundef 0)
  %69 = load i32, ptr %10, align 4
  %70 = add i32 %69, 1
  store i32 %70, ptr %10, align 4
  br label %71

71:                                               ; preds = %76, %54
  %72 = load i16, ptr %12, align 2
  %73 = zext i16 %72 to i32
  %74 = load i32, ptr %10, align 4
  %75 = icmp sgt i32 %73, %74
  br i1 %75, label %76, label %84

76:                                               ; preds = %71
  %77 = load i32, ptr %10, align 4
  %78 = add i32 %77, 1
  store i32 %78, ptr %10, align 4
  %79 = load ptr, ptr %6, align 8
  %80 = load ptr, ptr %7, align 8
  %81 = load ptr, ptr %15, align 8
  %82 = load i32, ptr %10, align 4
  %83 = call i32 @dissect_uma_IE(ptr noundef %79, ptr noundef %80, ptr noundef %81, i32 noundef %82)
  store i32 %83, ptr %10, align 4
  br label %71, !llvm.loop !8

84:                                               ; preds = %71
  %85 = load i32, ptr %10, align 4
  store i32 %85, ptr %5, align 4
  store i32 1, ptr %16, align 4
  br label %92

86:                                               ; preds = %4
  %87 = load ptr, ptr %7, align 8
  %88 = load ptr, ptr %13, align 8
  %89 = call ptr @expert_add_info(ptr noundef %87, ptr noundef %88, ptr noundef @ei_uma_wrong_message_type)
  %90 = load ptr, ptr %6, align 8
  %91 = call i32 @tvb_reported_length(ptr noundef %90)
  store i32 %91, ptr %5, align 4
  store i32 1, ptr %16, align 4
  br label %92

92:                                               ; preds = %86, %84
  call void @llvm.lifetime.end.p0(i64 8, ptr %15) #4
  call void @llvm.lifetime.end.p0(i64 8, ptr %14) #4
  call void @llvm.lifetime.end.p0(i64 8, ptr %13) #4
  call void @llvm.lifetime.end.p0(i64 2, ptr %12) #4
  call void @llvm.lifetime.end.p0(i64 1, ptr %11) #4
  call void @llvm.lifetime.end.p0(i64 4, ptr %10) #4
  %93 = load i32, ptr %5, align 4
  ret i32 %93
}