; Function Attrs: null_pointer_is_valid sspstrong uwtable
define internal i32 @dissect_uma_urlc_udp(ptr noundef %0, ptr noundef %1, ptr noundef %2, ptr readnone captures(none) %3) #0 {
  %5 = getelementptr inbounds nuw i8, ptr %1, i64 8
  %6 = load ptr, ptr %5, align 8
  tail call void @col_set_str(ptr noundef %6, i32 noundef 35, ptr noundef nonnull @.str.221)
  %7 = load ptr, ptr %5, align 8
  tail call void @col_clear(ptr noundef %7, i32 noundef 25)
  %8 = load i32, ptr @proto_uma, align 4
  %9 = tail call ptr @proto_tree_add_item(ptr noundef %2, i32 noundef %8, ptr noundef %0, i32 noundef 0, i32 noundef -1, i32 noundef 0)
  %10 = load i32, ptr @ett_uma, align 4
  %11 = tail call ptr @proto_item_add_subtree(ptr noundef %9, i32 noundef %10)
  %12 = tail call zeroext i8 @tvb_get_uint8(ptr noundef %0, i32 noundef 0)
  %13 = load i32, ptr @hf_uma_urlc_msg_type, align 4
  %14 = tail call ptr @proto_tree_add_item(ptr noundef %11, i32 noundef %13, ptr noundef %0, i32 noundef 0, i32 noundef 1, i32 noundef 0)
  %15 = load ptr, ptr %5, align 8
  %16 = zext i8 %12 to i32
  %17 = tail call ptr @val_to_str_ext(i32 noundef %16, ptr noundef nonnull @uma_urlc_msg_type_vals_ext, ptr noundef nonnull @.str.610)
  tail call void (ptr, i32, ptr, ...) @col_add_fstr(ptr noundef %15, i32 noundef 25, ptr noundef nonnull @.str.613, ptr noundef %17)
  %18 = load ptr, ptr %5, align 8
  tail call void @col_set_fence(ptr noundef %18, i32 noundef 25)
  %19 = tail call i32 @tvb_reported_length_remaining(ptr noundef %0, i32 noundef 0)
  switch i8 %12, label %31 [
    i8 2, label %20
    i8 6, label %20
    i8 7, label %20
  ]

20:                                               ; preds = %4, %4, %4
  %21 = add i32 %19, 65535
  %22 = load i32, ptr @hf_uma_urlc_TLLI, align 4
  %23 = tail call ptr @proto_tree_add_item(ptr noundef %11, i32 noundef %22, ptr noundef %0, i32 noundef 1, i32 noundef 4, i32 noundef 0)
  %24 = load i32, ptr @hf_uma_urlc_seq_nr, align 4
  %25 = tail call ptr @proto_tree_add_item(ptr noundef %11, i32 noundef %24, ptr noundef %0, i32 noundef 5, i32 noundef 2, i32 noundef 0)
  %26 = and i32 %21, 65535
  %27 = icmp samesign ugt i32 %26, 6
  br i1 %27, label %.lr.ph, label %.loopexit

.lr.ph:                                           ; preds = %20, %.lr.ph
  %.03637 = phi i32 [ %29, %.lr.ph ], [ 6, %20 ]
  %28 = add nsw i32 %.03637, 1
  %29 = tail call fastcc i32 @dissect_uma_IE(ptr noundef %0, ptr noundef %1, ptr noundef %11, i32 noundef %28)
  %30 = icmp sgt i32 %26, %29
  br i1 %30, label %.lr.ph, label %.loopexit, !llvm.loop !8

31:                                               ; preds = %4
  %32 = tail call ptr @expert_add_info(ptr noundef %1, ptr noundef %14, ptr noundef nonnull @ei_uma_wrong_message_type)
  %33 = tail call i32 @tvb_reported_length(ptr noundef %0)
  br label %.loopexit

.loopexit:                                        ; preds = %.lr.ph, %20, %31
  %.0 = phi i32 [ %33, %31 ], [ 6, %20 ], [ %29, %.lr.ph ]
  ret i32 %.0
}